target datalayout = "e-m:e-p270:32:32-p271:32:32-p272:64:64-i64:64-i128:128-f80:128-n8:16:32:64-S128"
target triple = "x86_64-pc-linux-gnu"

@_ZN5folly8external8farmhash4test25returnZeroIfMisconfiguredE = global i8 0, align 1

; Function Attrs: mustprogress nounwind uwtable
define noundef i64 @_ZN5folly8external8farmhash10farmhashte6Hash64EPKcm(ptr noundef %0, i64 noundef %1) #4 {
  %3 = alloca i64, align 8
  %4 = alloca ptr, align 8
  %5 = alloca i64, align 8
  store ptr %0, ptr %4, align 8, !tbaa !7
  store i64 %1, ptr %5, align 8, !tbaa !12
  br label %6

6:                                                ; preds = %2
  %7 = load i8, ptr @_ZN5folly8external8farmhash4test25returnZeroIfMisconfiguredE, align 1, !tbaa !34, !range !36, !noundef !37
  %8 = trunc i8 %7 to i1
  br i1 %8, label %9, label %10

9:                                                ; preds = %6
  store i64 0, ptr %3, align 8
  br label %19

10:                                               ; preds = %6
  call void @_ZSt9terminatev() #9
  unreachable

11:                                               ; No predecessors!
  %12 = load ptr, ptr %4, align 8, !tbaa !7
  %13 = icmp eq ptr %12, null
  br i1 %13, label %14, label %15

14:                                               ; preds = %11
  br label %17

15:                                               ; preds = %11
  %16 = load i64, ptr %5, align 8, !tbaa !12
  br label %17

17:                                               ; preds = %15, %14
  %18 = phi i64 [ 0, %14 ], [ %16, %15 ]
  store i64 %18, ptr %3, align 8
  br label %19

19:                                               ; preds = %17, %9
  %20 = load i64, ptr %3, align 8
  ret i64 %20
}

; Function Attrs: mustprogress nounwind uwtable
define noundef i64 @_ZN5folly8external8farmhash10farmhashte15Hash64WithSeedsEPKcmmm(ptr noundef %0, i64 noundef %1, i64 noundef %2, i64 noundef %3) #4 {
  %5 = alloca i64, align 8
  %6 = alloca ptr, align 8
  %7 = alloca i64, align 8
  %8 = alloca i64, align 8
  %9 = alloca i64, align 8
  store ptr %0, ptr %6, align 8, !tbaa !7
  store i64 %1, ptr %7, align 8, !tbaa !12
  store i64 %2, ptr %8, align 8, !tbaa !12
  store i64 %3, ptr %9, align 8, !tbaa !12
  br label %10

10:                                               ; preds = %4
  %11 = load i8, ptr @_ZN5folly8external8farmhash4test25returnZeroIfMisconfiguredE, align 1, !tbaa !34, !range !36, !noundef !37
  %12 = trunc i8 %11 to i1
  br i1 %12, label %13, label %14

13:                                               ; preds = %10
  store i64 0, ptr %5, align 8
  br label %23

14:                                               ; preds = %10
  call void @_ZSt9terminatev() #9
  unreachable

15:                                               ; No predecessors!
  %16 = load i64, ptr %8, align 8, !tbaa !12
  %17 = load i64, ptr %9, align 8, !tbaa !12
  %18 = add i64 %16, %17
  %19 = load ptr, ptr %6, align 8, !tbaa !7
  %20 = load i64, ptr %7, align 8, !tbaa !12
  %21 = call noundef i64 @_ZN5folly8external8farmhash10farmhashte6Hash64EPKcm(ptr noundef %19, i64 noundef %20)
  %22 = add i64 %18, %21
  store i64 %22, ptr %5, align 8
  br label %23

23:                                               ; preds = %15, %13
  %24 = load i64, ptr %5, align 8
  ret i64 %24
}