; Function Attrs: mustprogress nofree nounwind uwtable
define noundef i64 @_ZN5folly8external8farmhash10farmhashte15Hash64WithSeedsEPKcmmm(ptr noundef readnone captures(none) %0, i64 noundef %1, i64 noundef %2, i64 noundef %3) local_unnamed_addr #1 {
  %5 = load i8, ptr @_ZN5folly8external8farmhash4test25returnZeroIfMisconfiguredE, align 1, !tbaa !13, !range !15, !noundef !16
  %6 = trunc nuw i8 %5 to i1
  br i1 %6, label %7, label %8

7:                                                ; preds = %4
  ret i64 0

8:                                                ; preds = %4
  tail call void @_ZSt9terminatev() #4
  unreachable
}